target datalayout = "e-m:e-p270:32:32-p271:32:32-p272:64:64-i64:64-i128:128-f80:128-n8:16:32:64-S128"
target triple = "x86_64-pc-linux-gnu"

%"class.icu_77::number::impl::DecimalQuantity" = type <{ %"class.icu_77::IFixedDecimal", i8, [3 x i8], i32, i32, i8, i8, [2 x i8], double, i32, i32, i32, i32, %union.anon, i8, i8, [6 x i8] }>
%"class.icu_77::IFixedDecimal" = type { ptr }
%union.anon = type { %struct.anon }
%struct.anon = type { ptr, i32 }

; Function Attrs: mustprogress uwtable
define void @_ZN6icu_776number4impl15DecimalQuantity12setBcdToZeroEv(ptr noundef nonnull align 8 dereferenceable(66) %0) #1 align 2 {
  %2 = alloca ptr, align 8
  store ptr %0, ptr %2, align 8, !tbaa !25
  %3 = load ptr, ptr %2, align 8
  %4 = getelementptr inbounds nuw %"class.icu_77::number::impl::DecimalQuantity", ptr %3, i32 0, i32 14
  %5 = load i8, ptr %4, align 8, !tbaa !37, !range !40, !noundef !41
  %6 = trunc i8 %5 to i1
  br i1 %6, label %7, label %14

7:                                                ; preds = %1
  %8 = getelementptr inbounds nuw %"class.icu_77::number::impl::DecimalQuantity", ptr %3, i32 0, i32 13
  %9 = getelementptr inbounds nuw %struct.anon, ptr %8, i32 0, i32 0
  %10 = load ptr, ptr %9, align 8, !tbaa !42
  call void @uprv_free_77(ptr noundef %10)
  %11 = getelementptr inbounds nuw %"class.icu_77::number::impl::DecimalQuantity", ptr %3, i32 0, i32 13
  %12 = getelementptr inbounds nuw %struct.anon, ptr %11, i32 0, i32 0
  store ptr null, ptr %12, align 8, !tbaa !42
  %13 = getelementptr inbounds nuw %"class.icu_77::number::impl::DecimalQuantity", ptr %3, i32 0, i32 14
  store i8 0, ptr %13, align 8, !tbaa !37
  br label %14

14:                                               ; preds = %7, %1
  %15 = getelementptr inbounds nuw %"class.icu_77::number::impl::DecimalQuantity", ptr %3, i32 0, i32 13
  store i64 0, ptr %15, align 8, !tbaa !42
  %16 = getelementptr inbounds nuw %"class.icu_77::number::impl::DecimalQuantity", ptr %3, i32 0, i32 3
  store i32 0, ptr %16, align 4, !tbaa !43
  %17 = getelementptr inbounds nuw %"class.icu_77::number::impl::DecimalQuantity", ptr %3, i32 0, i32 4
  store i32 0, ptr %17, align 8, !tbaa !44
  %18 = getelementptr inbounds nuw %"class.icu_77::number::impl::DecimalQuantity", ptr %3, i32 0, i32 6
  store i8 0, ptr %18, align 1, !tbaa !45
  %19 = getelementptr inbounds nuw %"class.icu_77::number::impl::DecimalQuantity", ptr %3, i32 0, i32 8
  store double 0.000000e+00, ptr %19, align 8, !tbaa !46
  %20 = getelementptr inbounds nuw %"class.icu_77::number::impl::DecimalQuantity", ptr %3, i32 0, i32 9
  store i32 0, ptr %20, align 8, !tbaa !47
  %21 = getelementptr inbounds nuw %"class.icu_77::number::impl::DecimalQuantity", ptr %3, i32 0, i32 12
  store i32 0, ptr %21, align 4, !tbaa !36
  ret void
}

; Function Attrs: mustprogress uwtable
define void @_ZN6icu_776number4impl15DecimalQuantity23convertToAccurateDoubleEv(ptr noundef nonnull align 8 dereferenceable(66) %0) #1 align 2 {
  %2 = alloca ptr, align 8
  %3 = alloca i32, align 4
  %4 = alloca [18 x i8], align 16
  %5 = alloca i8, align 1
  %6 = alloca i32, align 4
  %7 = alloca i32, align 4
  store ptr %0, ptr %2, align 8, !tbaa !25
  %8 = load ptr, ptr %2, align 8
  call void @llvm.lifetime.start.p0(i64 4, ptr %3) #14
  %9 = getelementptr inbounds nuw %"class.icu_77::number::impl::DecimalQuantity", ptr %8, i32 0, i32 9
  %10 = load i32, ptr %9, align 8, !tbaa !47
  store i32 %10, ptr %3, align 4, !tbaa !14
  call void @llvm.lifetime.start.p0(i64 18, ptr %4) #14
  call void @llvm.lifetime.start.p0(i64 1, ptr %5) #14
  call void @llvm.lifetime.start.p0(i64 4, ptr %6) #14
  call void @llvm.lifetime.start.p0(i64 4, ptr %7) #14
  %11 = getelementptr inbounds nuw %"class.icu_77::number::impl::DecimalQuantity", ptr %8, i32 0, i32 8
  %12 = load double, ptr %11, align 8, !tbaa !46
  %13 = getelementptr inbounds [18 x i8], ptr %4, i64 0, i64 0
  call void @_ZN6icu_7717double_conversion23DoubleToStringConverter13DoubleToAsciiEdNS1_8DtoaModeEiPciPbPiS5_(double noundef %12, i32 noundef 0, i32 noundef 0, ptr noundef %13, i32 noundef 18, ptr noundef %5, ptr noundef %6, ptr noundef %7)
  call void @_ZN6icu_776number4impl15DecimalQuantity12setBcdToZeroEv(ptr noundef nonnull align 8 dereferenceable(66) %8)
  %14 = getelementptr inbounds [18 x i8], ptr %4, i64 0, i64 0
  %15 = load i32, ptr %6, align 4, !tbaa !14
  %16 = load i32, ptr %7, align 4, !tbaa !14
  call void @_ZN6icu_776number4impl15DecimalQuantity25readDoubleConversionToBcdEPKcii(ptr noundef nonnull align 8 dereferenceable(66) %8, ptr noundef %14, i32 noundef %15, i32 noundef %16)
  %17 = load i32, ptr %3, align 4, !tbaa !14
  %18 = getelementptr inbounds nuw %"class.icu_77::number::impl::DecimalQuantity", ptr %8, i32 0, i32 3
  %19 = load i32, ptr %18, align 4, !tbaa !43
  %20 = add nsw i32 %19, %17
  store i32 %20, ptr %18, align 4, !tbaa !43
  %21 = getelementptr inbounds nuw %"class.icu_77::number::impl::DecimalQuantity", ptr %8, i32 0, i32 15
  store i8 1, ptr %21, align 1, !tbaa !38
  call void @llvm.lifetime.end.p0(i64 4, ptr %7) #14
  call void @llvm.lifetime.end.p0(i64 4, ptr %6) #14
  call void @llvm.lifetime.end.p0(i64 1, ptr %5) #14
  call void @llvm.lifetime.end.p0(i64 18, ptr %4) #14
  call void @llvm.lifetime.end.p0(i64 4, ptr %3) #14
  ret void
}

; Function Attrs: mustprogress uwtable
define void @_ZN6icu_776number4impl15DecimalQuantity16_setToDoubleFastEd(ptr noundef nonnull align 8 dereferenceable(66) %0, double noundef %1) #1 align 2 {
  %3 = alloca ptr, align 8
  %4 = alloca double, align 8
  %5 = alloca i64, align 8
  %6 = alloca i32, align 4
  %7 = alloca i32, align 4
  %8 = alloca i32, align 4
  %9 = alloca i32, align 4
  %10 = alloca i32, align 4
  %11 = alloca i64, align 8
  store ptr %0, ptr %3, align 8, !tbaa !25
  store double %1, ptr %4, align 8, !tbaa !67
  %12 = load ptr, ptr %3, align 8
  %13 = getelementptr inbounds nuw %"class.icu_77::number::impl::DecimalQuantity", ptr %12, i32 0, i32 6
  store i8 1, ptr %13, align 1, !tbaa !45
  %14 = load double, ptr %4, align 8, !tbaa !67
  %15 = getelementptr inbounds nuw %"class.icu_77::number::impl::DecimalQuantity", ptr %12, i32 0, i32 8
  store double %14, ptr %15, align 8, !tbaa !46
  %16 = getelementptr inbounds nuw %"class.icu_77::number::impl::DecimalQuantity", ptr %12, i32 0, i32 9
  store i32 0, ptr %16, align 8, !tbaa !47
  call void @llvm.lifetime.start.p0(i64 8, ptr %5) #14
  br label %17

17:                                               ; preds = %2
  call void @llvm.memcpy.p0.p0.i64(ptr align 8 %5, ptr align 8 %4, i64 8, i1 false)
  br label %18

18:                                               ; preds = %17
  br label %19

19:                                               ; preds = %18
  call void @llvm.lifetime.start.p0(i64 4, ptr %6) #14
  %20 = load i64, ptr %5, align 8, !tbaa !18
  %21 = and i64 %20, 9218868437227405312
  %22 = lshr i64 %21, 52
  %23 = trunc i64 %22 to i32
  %24 = sub nsw i32 %23, 1023
  store i32 %24, ptr %6, align 4, !tbaa !14
  %25 = load i32, ptr %6, align 4, !tbaa !14
  %26 = icmp sle i32 %25, 52
  br i1 %26, label %27, label %36

27:                                               ; preds = %19
  %28 = load double, ptr %4, align 8, !tbaa !67
  %29 = fptosi double %28 to i64
  %30 = sitofp i64 %29 to double
  %31 = load double, ptr %4, align 8, !tbaa !67
  %32 = fcmp oeq double %30, %31
  br i1 %32, label %33, label %36

33:                                               ; preds = %27
  %34 = load double, ptr %4, align 8, !tbaa !67
  %35 = fptosi double %34 to i64
  call void @_ZN6icu_776number4impl15DecimalQuantity10_setToLongEl(ptr noundef nonnull align 8 dereferenceable(66) %12, i64 noundef %35)
  store i32 1, ptr %7, align 4
  br label %101

36:                                               ; preds = %27, %19
  %37 = load i32, ptr %6, align 4, !tbaa !14
  %38 = icmp eq i32 %37, -1023
  br i1 %38, label %42, label %39

39:                                               ; preds = %36
  %40 = load i32, ptr %6, align 4, !tbaa !14
  %41 = icmp eq i32 %40, 1024
  br i1 %41, label %42, label %43

42:                                               ; preds = %39, %36
  call void @_ZN6icu_776number4impl15DecimalQuantity23convertToAccurateDoubleEv(ptr noundef nonnull align 8 dereferenceable(66) %12)
  store i32 1, ptr %7, align 4
  br label %101

43:                                               ; preds = %39
  call void @llvm.lifetime.start.p0(i64 4, ptr %8) #14
  %44 = load i32, ptr %6, align 4, !tbaa !14
  %45 = sub nsw i32 52, %44
  %46 = sitofp i32 %45 to double
  %47 = fdiv double %46, 0x400A934F0979A371
  %48 = fptosi double %47 to i32
  store i32 %48, ptr %8, align 4, !tbaa !14
  %49 = load i32, ptr %8, align 4, !tbaa !14
  %50 = icmp sge i32 %49, 0
  br i1 %50, label %51, label %69

51:                                               ; preds = %43
  call void @llvm.lifetime.start.p0(i64 4, ptr %9) #14
  %52 = load i32, ptr %8, align 4, !tbaa !14
  store i32 %52, ptr %9, align 4, !tbaa !14
  br label %53

53:                                               ; preds = %59, %51
  %54 = load i32, ptr %9, align 4, !tbaa !14
  %55 = icmp sge i32 %54, 22
  br i1 %55, label %56, label %62

56:                                               ; preds = %53
  %57 = load double, ptr %4, align 8, !tbaa !67
  %58 = fmul double %57, 1.000000e+22
  store double %58, ptr %4, align 8, !tbaa !67
  br label %59

59:                                               ; preds = %56
  %60 = load i32, ptr %9, align 4, !tbaa !14
  %61 = sub nsw i32 %60, 22
  store i32 %61, ptr %9, align 4, !tbaa !14
  br label %53, !llvm.loop !76

62:                                               ; preds = %53
  %63 = load i32, ptr %9, align 4, !tbaa !14
  %64 = sext i32 %63 to i64
  %65 = getelementptr inbounds [22 x double], ptr @_ZN12_GLOBAL__N_118DOUBLE_MULTIPLIERSE, i64 0, i64 %64
  %66 = load double, ptr %65, align 8, !tbaa !67
  %67 = load double, ptr %4, align 8, !tbaa !67
  %68 = fmul double %67, %66
  store double %68, ptr %4, align 8, !tbaa !67
  call void @llvm.lifetime.end.p0(i64 4, ptr %9) #14
  br label %88

69:                                               ; preds = %43
  call void @llvm.lifetime.start.p0(i64 4, ptr %10) #14
  %70 = load i32, ptr %8, align 4, !tbaa !14
  store i32 %70, ptr %10, align 4, !tbaa !14
  br label %71

71:                                               ; preds = %77, %69
  %72 = load i32, ptr %10, align 4, !tbaa !14
  %73 = icmp sle i32 %72, -22
  br i1 %73, label %74, label %80

74:                                               ; preds = %71
  %75 = load double, ptr %4, align 8, !tbaa !67
  %76 = fdiv double %75, 1.000000e+22
  store double %76, ptr %4, align 8, !tbaa !67
  br label %77

77:                                               ; preds = %74
  %78 = load i32, ptr %10, align 4, !tbaa !14
  %79 = add nsw i32 %78, 22
  store i32 %79, ptr %10, align 4, !tbaa !14
  br label %71, !llvm.loop !77

80:                                               ; preds = %71
  %81 = load i32, ptr %10, align 4, !tbaa !14
  %82 = sub nsw i32 0, %81
  %83 = sext i32 %82 to i64
  %84 = getelementptr inbounds [22 x double], ptr @_ZN12_GLOBAL__N_118DOUBLE_MULTIPLIERSE, i64 0, i64 %83
  %85 = load double, ptr %84, align 8, !tbaa !67
  %86 = load double, ptr %4, align 8, !tbaa !67
  %87 = fdiv double %86, %85
  store double %87, ptr %4, align 8, !tbaa !67
  call void @llvm.lifetime.end.p0(i64 4, ptr %10) #14
  br label %88

88:                                               ; preds = %80, %62
  call void @llvm.lifetime.start.p0(i64 8, ptr %11) #14
  %89 = load double, ptr %4, align 8, !tbaa !67
  %90 = call double @uprv_round_77(double noundef %89)
  %91 = fptosi double %90 to i64
  store i64 %91, ptr %11, align 8, !tbaa !18
  %92 = load i64, ptr %11, align 8, !tbaa !18
  %93 = icmp ne i64 %92, 0
  br i1 %93, label %94, label %100

94:                                               ; preds = %88
  %95 = load i64, ptr %11, align 8, !tbaa !18
  call void @_ZN6icu_776number4impl15DecimalQuantity10_setToLongEl(ptr noundef nonnull align 8 dereferenceable(66) %12, i64 noundef %95)
  %96 = load i32, ptr %8, align 4, !tbaa !14
  %97 = getelementptr inbounds nuw %"class.icu_77::number::impl::DecimalQuantity", ptr %12, i32 0, i32 3
  %98 = load i32, ptr %97, align 4, !tbaa !43
  %99 = sub nsw i32 %98, %96
  store i32 %99, ptr %97, align 4, !tbaa !43
  br label %100

100:                                              ; preds = %94, %88
  call void @llvm.lifetime.end.p0(i64 8, ptr %11) #14
  call void @llvm.lifetime.end.p0(i64 4, ptr %8) #14
  store i32 0, ptr %7, align 4
  br label %101

101:                                              ; preds = %100, %42, %33
  call void @llvm.lifetime.end.p0(i64 4, ptr %6) #14
  call void @llvm.lifetime.end.p0(i64 8, ptr %5) #14
  %102 = load i32, ptr %7, align 4
  switch i32 %102, label %104 [
    i32 0, label %103
    i32 1, label %103
  ]

103:                                              ; preds = %101, %101
  ret void

104:                                              ; preds = %101
  unreachable
}