; Function Attrs: mustprogress uwtable
define void @_ZN6icu_776number4impl15DecimalQuantity16_setToDoubleFastEd(ptr noundef nonnull align 8 captures(none) dereferenceable(66) initializes((21, 22), (24, 36)) %0, double noundef %1) local_unnamed_addr #1 align 2 {
  %3 = alloca [18 x i8], align 16
  %4 = alloca i8, align 1
  %5 = alloca i32, align 4
  %6 = alloca i32, align 4
  %7 = getelementptr inbounds nuw i8, ptr %0, i64 21
  store i8 1, ptr %7, align 1, !tbaa !29
  %8 = getelementptr inbounds nuw i8, ptr %0, i64 24
  store double %1, ptr %8, align 8, !tbaa !30
  %9 = getelementptr inbounds nuw i8, ptr %0, i64 32
  store i32 0, ptr %9, align 8, !tbaa !31
  %10 = bitcast double %1 to i64
  %11 = lshr i64 %10, 52
  %12 = trunc nuw nsw i64 %11 to i32
  %13 = and i32 %12, 2047
  %14 = icmp samesign ult i32 %13, 1076
  br i1 %14, label %15, label %20

15:                                               ; preds = %2
  %16 = fptosi double %1 to i64
  %17 = sitofp i64 %16 to double
  %18 = fcmp oeq double %1, %17
  br i1 %18, label %19, label %20

19:                                               ; preds = %15
  tail call void @_ZN6icu_776number4impl15DecimalQuantity10_setToLongEl(ptr noundef nonnull align 8 dereferenceable(66) %0, i64 noundef %16)
  br label %65

20:                                               ; preds = %15, %2
  switch i32 %13, label %35 [
    i32 2047, label %21
    i32 0, label %21
  ]

21:                                               ; preds = %20, %20
  call void @llvm.lifetime.start.p0(i64 18, ptr nonnull %3) #26
  call void @llvm.lifetime.start.p0(i64 1, ptr nonnull %4) #26
  call void @llvm.lifetime.start.p0(i64 4, ptr nonnull %5) #26
  call void @llvm.lifetime.start.p0(i64 4, ptr nonnull %6) #26
  call void @_ZN6icu_7717double_conversion23DoubleToStringConverter13DoubleToAsciiEdNS1_8DtoaModeEiPciPbPiS5_(double noundef %1, i32 noundef 0, i32 noundef 0, ptr noundef nonnull %3, i32 noundef 18, ptr noundef nonnull %4, ptr noundef nonnull %5, ptr noundef nonnull %6)
  %22 = getelementptr inbounds nuw i8, ptr %0, i64 64
  %23 = load i8, ptr %22, align 8, !tbaa !22, !range !24, !noundef !25
  %24 = trunc nuw i8 %23 to i1
  br i1 %24, label %25, label %_ZN6icu_776number4impl15DecimalQuantity23convertToAccurateDoubleEv.exit

25:                                               ; preds = %21
  %26 = getelementptr inbounds nuw i8, ptr %0, i64 48
  %27 = load ptr, ptr %26, align 8, !tbaa !26
  call void @uprv_free_77(ptr noundef %27)
  store i8 0, ptr %22, align 8, !tbaa !22
  br label %_ZN6icu_776number4impl15DecimalQuantity23convertToAccurateDoubleEv.exit

_ZN6icu_776number4impl15DecimalQuantity23convertToAccurateDoubleEv.exit: ; preds = %21, %25
  %28 = getelementptr inbounds nuw i8, ptr %0, i64 48
  store i64 0, ptr %28, align 8, !tbaa !26
  %29 = getelementptr inbounds nuw i8, ptr %0, i64 12
  store i32 0, ptr %29, align 4, !tbaa !27
  %30 = getelementptr inbounds nuw i8, ptr %0, i64 16
  store i32 0, ptr %30, align 8, !tbaa !28
  store i8 0, ptr %7, align 1, !tbaa !29
  store double 0.000000e+00, ptr %8, align 8, !tbaa !30
  store i32 0, ptr %9, align 8, !tbaa !31
  %31 = getelementptr inbounds nuw i8, ptr %0, i64 44
  store i32 0, ptr %31, align 4, !tbaa !32
  %32 = load i32, ptr %5, align 4, !tbaa !12
  %33 = load i32, ptr %6, align 4, !tbaa !12
  call void @_ZN6icu_776number4impl15DecimalQuantity25readDoubleConversionToBcdEPKcii(ptr noundef nonnull align 8 dereferenceable(66) %0, ptr noundef nonnull %3, i32 noundef %32, i32 noundef %33)
  %34 = getelementptr inbounds nuw i8, ptr %0, i64 65
  store i8 1, ptr %34, align 1, !tbaa !23
  call void @llvm.lifetime.end.p0(i64 4, ptr nonnull %6) #26
  call void @llvm.lifetime.end.p0(i64 4, ptr nonnull %5) #26
  call void @llvm.lifetime.end.p0(i64 1, ptr nonnull %4) #26
  call void @llvm.lifetime.end.p0(i64 18, ptr nonnull %3) #26
  br label %65

35:                                               ; preds = %20
  %36 = sub nsw i32 1075, %13
  %37 = sitofp i32 %36 to double
  %38 = fdiv double %37, 0x400A934F0979A371
  %39 = fptosi double %38 to i32
  %40 = icmp sgt i32 %39, -1
  br i1 %40, label %.preheader, label %.preheader34

.preheader34:                                     ; preds = %35
  %41 = icmp samesign ult i32 %39, -21
  br i1 %41, label %.lr.ph, label %._crit_edge

.preheader:                                       ; preds = %35
  %42 = icmp samesign ugt i32 %39, 21
  br i1 %42, label %.lr.ph40, label %._crit_edge41

.lr.ph40:                                         ; preds = %.preheader, %.lr.ph40
  %.039 = phi double [ %43, %.lr.ph40 ], [ %1, %.preheader ]
  %.02938 = phi i32 [ %44, %.lr.ph40 ], [ %39, %.preheader ]
  %43 = fmul double %.039, 1.000000e+22
  %44 = add nsw i32 %.02938, -22
  %45 = icmp samesign ugt i32 %.02938, 43
  br i1 %45, label %.lr.ph40, label %._crit_edge41, !llvm.loop !70

._crit_edge41:                                    ; preds = %.lr.ph40, %.preheader
  %.029.lcssa = phi i32 [ %39, %.preheader ], [ %44, %.lr.ph40 ]
  %.0.lcssa = phi double [ %1, %.preheader ], [ %43, %.lr.ph40 ]
  %46 = zext nneg i32 %.029.lcssa to i64
  %47 = getelementptr inbounds nuw [22 x double], ptr @_ZN12_GLOBAL__N_118DOUBLE_MULTIPLIERSE, i64 0, i64 %46
  %48 = load double, ptr %47, align 8, !tbaa !71
  %49 = fmul double %.0.lcssa, %48
  br label %58

.lr.ph:                                           ; preds = %.preheader34, %.lr.ph
  %.236 = phi double [ %50, %.lr.ph ], [ %1, %.preheader34 ]
  %.02835 = phi i32 [ %51, %.lr.ph ], [ %39, %.preheader34 ]
  %50 = fdiv double %.236, 1.000000e+22
  %51 = add nsw i32 %.02835, 22
  %52 = icmp samesign ult i32 %.02835, -43
  br i1 %52, label %.lr.ph, label %._crit_edge, !llvm.loop !72

._crit_edge:                                      ; preds = %.lr.ph, %.preheader34
  %.028.lcssa = phi i32 [ %39, %.preheader34 ], [ %51, %.lr.ph ]
  %.2.lcssa = phi double [ %1, %.preheader34 ], [ %50, %.lr.ph ]
  %53 = sub nsw i32 0, %.028.lcssa
  %54 = zext nneg i32 %53 to i64
  %55 = getelementptr inbounds nuw [22 x double], ptr @_ZN12_GLOBAL__N_118DOUBLE_MULTIPLIERSE, i64 0, i64 %54
  %56 = load double, ptr %55, align 8, !tbaa !71
  %57 = fdiv double %.2.lcssa, %56
  br label %58

58:                                               ; preds = %._crit_edge, %._crit_edge41
  %.1 = phi double [ %49, %._crit_edge41 ], [ %57, %._crit_edge ]
  %59 = tail call double @uprv_round_77(double noundef %.1)
  %60 = fptosi double %59 to i64
  %.not = icmp eq i64 %60, 0
  br i1 %.not, label %65, label %61

61:                                               ; preds = %58
  tail call void @_ZN6icu_776number4impl15DecimalQuantity10_setToLongEl(ptr noundef nonnull align 8 dereferenceable(66) %0, i64 noundef %60)
  %62 = getelementptr inbounds nuw i8, ptr %0, i64 12
  %63 = load i32, ptr %62, align 4, !tbaa !27
  %64 = sub nsw i32 %63, %39
  store i32 %64, ptr %62, align 4, !tbaa !27
  br label %65

65:                                               ; preds = %58, %61, %_ZN6icu_776number4impl15DecimalQuantity23convertToAccurateDoubleEv.exit, %19
  ret void
}